; Function Attrs: nounwind uwtable
define range(i32 -1, 1) i32 @H5B2__hdr_decr(ptr noundef %0) local_unnamed_addr #0 {
  %2 = getelementptr inbounds i8, ptr %0, i64 312
  %3 = load i64, ptr %2, align 8
  %4 = add i64 %3, -1
  store i64 %4, ptr %2, align 8
  %5 = icmp eq i64 %4, 0
  br i1 %5, label %6, label %13

6:                                                ; preds = %1
  %7 = tail call i32 @H5AC_unpin_entry(ptr noundef nonnull %0) #4
  %8 = icmp slt i32 %7, 0
  br i1 %8, label %9, label %13

9:                                                ; preds = %6
  %10 = load i64, ptr @H5E_BTREE_g, align 8
  %11 = load i64, ptr @H5E_CANTUNPIN_g, align 8
  %12 = tail call i32 (ptr, ptr, i32, i64, i64, ptr, ...) @H5E_printf_stack(ptr noundef nonnull @.str.1, ptr noundef nonnull @__func__.H5B2__hdr_decr, i32 noundef 389, i64 noundef %10, i64 noundef %11, ptr noundef nonnull @.str.18) #4
  br label %13

13:                                               ; preds = %1, %6, %9
  %.0 = phi i32 [ -1, %9 ], [ 0, %6 ], [ 0, %1 ]
  ret i32 %.0
}